; Function Attrs: mustprogress nounwind uwtable
define void @_ZN6icu_756number4impl25UFormattedNumberRangeDataD2Ev(ptr noundef nonnull align 8 dereferenceable(452) %this) unnamed_addr #0 align 2 {
entry:
  store ptr getelementptr inbounds ({ [8 x ptr] }, ptr @_ZTVN6icu_756number4impl25UFormattedNumberRangeDataE, i64 0, i32 0, i64 2), ptr %this, align 8
  %quantity2 = getelementptr inbounds i8, ptr %this, i64 376
  tail call void @_ZN6icu_756number4impl15DecimalQuantityD1Ev(ptr noundef nonnull align 8 dereferenceable(66) %quantity2) #10
  %quantity1 = getelementptr inbounds i8, ptr %this, i64 304
  tail call void @_ZN6icu_756number4impl15DecimalQuantityD1Ev(ptr noundef nonnull align 8 dereferenceable(66) %quantity1) #10
  tail call void @_ZN6icu_7531FormattedValueStringBuilderImplD2Ev(ptr noundef nonnull align 8 dereferenceable(300) %this) #10
  ret void
}